Certificate:
    Data:
        Version: 3 (0x2)
        Serial Number: 1 (0x1)
        Signature Algorithm: md5WithRSAEncryption
        Issuer: C=FR, ST=Alcatel, L=PKI Authority, O=Alcatel Root CA, CN=alcatel.com/emailAddress=root@alcatel.com
        Validity
            Not Before: May 12 07:40:39 2006 GMT
            Not After : Apr 17 14:57:59 2014 GMT
        Subject: C=FR, ST=Alcatel, L=Alcatel CIT, O=Alcatel HSS Server, CN=alcatel.fr/emailAddress=root@alcatel.fr
        Subject Public Key Info:
            Public Key Algorithm: rsaEncryption
            RSA Public Key: (1024 bit)
                Modulus (1024 bit):
                    00:a3:d0:f3:05:ca:95:18:f2:60:06:36:53:20:d2:
                    c2:b6:53:37:f0:13:ab:7a:9e:35:c9:20:41:38:7a:
                    4c:0b:a0:68:11:67:81:7f:c9:96:ea:d2:e7:4f:23:
                    c1:79:a1:6e:d1:a8:50:3b:d7:9c:0a:49:81:aa:86:
                    2e:2b:21:26:a2:a0:22:9a:5d:34:db:e8:04:d5:b4:
                    7a:d9:c9:60:a0:3a:bd:5b:1f:59:cb:0c:a4:47:41:
                    a2:88:fc:6f:57:45:9d:41:39:f6:ac:ae:78:82:7c:
                    64:38:7f:ed:4e:34:62:e9:b2:32:3f:dc:da:f2:8f:
                    a1:4f:d4:d3:c9:4b:f2:f8:17
                Exponent: 65537 (0x10001)
    Signature Algorithm: md5WithRSAEncryption
        90:c6:77:20:67:25:08:3f:d0:a2:3a:61:12:9b:5b:83:dd:43:
        7b:f1:a9:da:8b:75:40:6d:f2:74:8e:4a:fd:7c:a1:b0:1e:62:
        d0:63:85:ca:85:5d:9a:ae:9c:a0:75:8e:9f:45:19:2c:63:fb:
        4c:5f:23:ff:b0:80:3f:e7:72:78:41:e6:d5:82:ee:29:81:6f:
        20:58:95:e8:9a:12:16:22:d6:6e:0f:8f:47:15:01:3a:08:da:
        7f:99:79:31:5d:95:dd:00:1c:7b:0a:bc:e6:17:7b:5b:df:64:
        ca:95:57:a8:16:44:81:b8:f4:72:5b:42:59:4b:01:d2:68:7b:
        e6:a7
-----BEGIN CERTIFICATE-----
MIIChTCCAe6gAwIBAgIBATANBgkqhkiG9w0BAQQFADCBiDELMAkGA1UEBhMCRlIx
EDAOBgNVBAgTB0FsY2F0ZWwxFjAUBgNVBAcTDVBLSSBBdXRob3JpdHkxGDAWBgNV
BAoTD0FsY2F0ZWwgUm9vdCBDQTEUMBIGA1UEAxMLYWxjYXRlbC5jb20xHzAdBgkq
hkiG9w0BCQEWEHJvb3RAYWxjYXRlbC5jb20wHhcNMDYwNTEyMDc0MDM5WhcNMTQw
NDE3MTQ1NzU5WjCBhzELMAkGA1UEBhMCRlIxEDAOBgNVBAgTB0FsY2F0ZWwxFDAS
BgNVBAcTC0FsY2F0ZWwgQ0lUMRswGQYDVQQKExJBbGNhdGVsIEhTUyBTZXJ2ZXIx
EzARBgNVBAMTCmFsY2F0ZWwuZnIxHjAcBgkqhkiG9w0BCQEWD3Jvb3RAYWxjYXRl
bC5mcjCBnzANBgkqhkiG9w0BAQEFAAOBjQAwgYkCgYEAo9DzBcqVGPJgBjZTINLC
tlM38BOrep41ySBBOHpMC6BoEWeBf8mW6tLnTyPBeaFu0ahQO9ecCkmBqoYuKyEm
oqAiml002+gE1bR62clgoDq9Wx9ZywykR0GiiPxvV0WdQTn2rK54gnxkOH/tTjRi
6bIyP9za8o+hT9TTyUvy+BcCAwEAATANBgkqhkiG9w0BAQQFAAOBgQCQxncgZyUI
P9CiOmESm1uD3UN78anai3VAbfJ0jkr9fKGwHmLQY4XKhV2arpygdY6fRRksY/tM
XyP/sIA/53J4QebVgu4pgW8gWJXomhIWItZuD49HFQE6CNp/mXkxXZXdABx7Crzm
F3tb32TKlVeoFkSBuPRyW0JZSwHSaHvmpw==
-----END CERTIFICATE-----
